target datalayout = "e-m:e-p270:32:32-p271:32:32-p272:64:64-i64:64-i128:128-f80:128-n8:16:32:64-S128"
target triple = "x86_64-unknown-linux-gnu"

%"class.QuantLib::Date" = type { i64 }
%"class.boost::detail::shared_count" = type { ptr }
%"class.boost::optional" = type { %"class.boost::optional_detail::tc_optional_base" }
%"class.boost::optional_detail::tc_optional_base" = type { i8, i8 }
%"class.QuantLib::DayCounter" = type { %"class.boost::shared_ptr.6" }
%"class.boost::shared_ptr.6" = type { ptr, %"class.boost::detail::shared_count" }
%"class.QuantLib::MakeVanillaSwap" = type { %"class.QuantLib::Period", %"class.boost::shared_ptr.18", double, %"class.QuantLib::Period", i32, %"class.QuantLib::Date", %"class.QuantLib::Date", %"class.QuantLib::Calendar", %"class.QuantLib::Calendar", i32, double, %"class.QuantLib::Period", %"class.QuantLib::Period", i32, i32, i32, i32, i32, i32, i8, i8, %"class.QuantLib::Date", %"class.QuantLib::Date", %"class.QuantLib::Date", %"class.QuantLib::Date", double, %"class.QuantLib::DayCounter", %"class.QuantLib::DayCounter", %"class.boost::optional", %"class.boost::optional.19", %"class.boost::shared_ptr.21" }
%"class.boost::shared_ptr.18" = type { ptr, %"class.boost::detail::shared_count" }
%"class.QuantLib::Calendar" = type { %"class.boost::shared_ptr.7" }
%"class.boost::shared_ptr.7" = type { ptr, %"class.boost::detail::shared_count" }
%"class.QuantLib::Period" = type { i32, i32 }
%"class.boost::optional.19" = type { %"class.boost::optional_detail::tc_optional_base.20" }
%"class.boost::optional_detail::tc_optional_base.20" = type { i8, i32 }
%"class.boost::shared_ptr.21" = type { ptr, %"class.boost::detail::shared_count" }

; Function Attrs: mustprogress nounwind uwtable
define linkonce_odr void @_ZN5boost15optional_detail16tc_optional_baseIbE9constructERKb(ptr noundef nonnull align 1 dereferenceable(2) %this, ptr noundef nonnull align 1 dereferenceable(1) %val) #1 comdat align 2 {
entry:
  %this.addr = alloca ptr, align 8
  %val.addr = alloca ptr, align 8
  store ptr %this, ptr %this.addr, align 8, !tbaa !3
  store ptr %val, ptr %val.addr, align 8, !tbaa !3
  %this1 = load ptr, ptr %this.addr, align 8
  %0 = load ptr, ptr %val.addr, align 8, !tbaa !3
  %1 = load i8, ptr %0, align 1, !tbaa !85, !range !83, !noundef !84
  %loadedv = trunc i8 %1 to i1
  %m_storage = getelementptr inbounds nuw %"class.boost::optional_detail::tc_optional_base", ptr %this1, i32 0, i32 1
  %storedv = zext i1 %loadedv to i8
  store i8 %storedv, ptr %m_storage, align 1, !tbaa !272
  %m_initialized = getelementptr inbounds nuw %"class.boost::optional_detail::tc_optional_base", ptr %this1, i32 0, i32 0
  store i8 1, ptr %m_initialized, align 1, !tbaa !270
  ret void
}

; Function Attrs: mustprogress uwtable
define linkonce_odr void @_ZN5boost15optional_detail16tc_optional_baseIbE6assignERKb(ptr noundef nonnull align 1 dereferenceable(2) %this, ptr noundef nonnull align 1 dereferenceable(1) %val) #2 comdat align 2 {
entry:
  %this.addr = alloca ptr, align 8
  %val.addr = alloca ptr, align 8
  store ptr %this, ptr %this.addr, align 8, !tbaa !3
  store ptr %val, ptr %val.addr, align 8, !tbaa !3
  %this1 = load ptr, ptr %this.addr, align 8
  %0 = load ptr, ptr %val.addr, align 8, !tbaa !3
  call void @_ZN5boost15optional_detail16tc_optional_baseIbE9constructERKb(ptr noundef nonnull align 1 dereferenceable(2) %this1, ptr noundef nonnull align 1 dereferenceable(1) %0)
  ret void
}

; Function Attrs: inlinehint mustprogress nounwind uwtable
define linkonce_odr noundef nonnull align 1 dereferenceable(1) ptr @_ZN5boost7forwardIbEEOT_RNS_11move_detail16remove_referenceIS1_E4typeE(ptr noundef nonnull align 1 dereferenceable(1) %t) #5 comdat {
entry:
  %t.addr = alloca ptr, align 8
  store ptr %t, ptr %t.addr, align 8, !tbaa !3
  %0 = load ptr, ptr %t.addr, align 8, !tbaa !3
  ret ptr %0
}

; Function Attrs: mustprogress uwtable
define linkonce_odr noundef nonnull align 1 dereferenceable(2) ptr @_ZN5boost8optionalIbEaSIbEENS_9enable_ifINS_7is_sameIbNS_5decayIT_E4typeEEERS1_E4typeEOS6_(ptr noundef nonnull align 1 dereferenceable(2) %this, ptr noundef nonnull align 1 dereferenceable(1) %val) #2 comdat align 2 {
entry:
  %this.addr = alloca ptr, align 8
  %val.addr = alloca ptr, align 8
  store ptr %this, ptr %this.addr, align 8, !tbaa !3
  store ptr %val, ptr %val.addr, align 8, !tbaa !3
  %this1 = load ptr, ptr %this.addr, align 8
  %0 = load ptr, ptr %val.addr, align 8, !tbaa !3
  %call = call noundef nonnull align 1 dereferenceable(1) ptr @_ZN5boost7forwardIbEEOT_RNS_11move_detail16remove_referenceIS1_E4typeE(ptr noundef nonnull align 1 dereferenceable(1) %0) #13
  call void @_ZN5boost15optional_detail16tc_optional_baseIbE6assignERKb(ptr noundef nonnull align 1 dereferenceable(2) %this1, ptr noundef nonnull align 1 dereferenceable(1) %call)
  ret ptr %this1
}

; Function Attrs: mustprogress uwtable
define noundef nonnull align 8 dereferenceable(264) ptr @_ZN8QuantLib15MakeVanillaSwap16withAtParCouponsEb(ptr noundef nonnull align 8 dereferenceable(264) %this, i1 noundef zeroext %b) #2 align 2 {
entry:
  %this.addr = alloca ptr, align 8
  %b.addr = alloca i8, align 1
  %ref.tmp = alloca i8, align 1
  store ptr %this, ptr %this.addr, align 8, !tbaa !3
  %storedv = zext i1 %b to i8
  store i8 %storedv, ptr %b.addr, align 1, !tbaa !85
  %this1 = load ptr, ptr %this.addr, align 8
  call void @llvm.lifetime.start.p0(i64 1, ptr %ref.tmp) #13
  %0 = load i8, ptr %b.addr, align 1, !tbaa !85, !range !83, !noundef !84
  %loadedv = trunc i8 %0 to i1
  %lnot = xor i1 %loadedv, true
  %storedv2 = zext i1 %lnot to i8
  store i8 %storedv2, ptr %ref.tmp, align 1, !tbaa !85
  %useIndexedCoupons_ = getelementptr inbounds nuw %"class.QuantLib::MakeVanillaSwap", ptr %this1, i32 0, i32 28
  %call = call noundef nonnull align 1 dereferenceable(2) ptr @_ZN5boost8optionalIbEaSIbEENS_9enable_ifINS_7is_sameIbNS_5decayIT_E4typeEEERS1_E4typeEOS6_(ptr noundef nonnull align 1 dereferenceable(2) %useIndexedCoupons_, ptr noundef nonnull align 1 dereferenceable(1) %ref.tmp)
  call void @llvm.lifetime.end.p0(i64 1, ptr %ref.tmp) #13
  ret ptr %this1
}