; Function Attrs: mustprogress nofree norecurse nosync nounwind willreturn memory(argmem: write) uwtable
define noundef nonnull align 8 dereferenceable(264) ptr @_ZN8QuantLib15MakeVanillaSwap16withAtParCouponsEb(ptr noundef nonnull returned writeonly align 8 dereferenceable(264) %this, i1 noundef zeroext %b) local_unnamed_addr #14 align 2 {
entry:
  %lnot = xor i1 %b, true
  %storedv2 = zext i1 %lnot to i8
  %useIndexedCoupons_ = getelementptr inbounds nuw i8, ptr %this, i64 232
  %m_storage.i.i.i = getelementptr inbounds nuw i8, ptr %this, i64 233
  store i8 %storedv2, ptr %m_storage.i.i.i, align 1, !tbaa !119
  store i8 1, ptr %useIndexedCoupons_, align 8, !tbaa !86
  ret ptr %this
}